(dp1
(I6
I9
tp2
I15
s(I10
I17
tp3
I12
s(I7
I12
tp4
I7
s(I1
I17
tp5
I9
s(I0
I7
tp6
I12
s(I13
I17
tp7
I7
s(I14
I17
tp8
I24
s(I1
I6
tp9
I5
s(I0
I10
tp10
I11
s(I3
I7
tp11
I24
s(I2
I5
tp12
I24
s(I1
I11
tp13
I11
s(I5
I8
tp14
I15
s(I6
I7
tp15
I29
s(I14
I18
tp16
I7
s(I5
I18
tp17
I19
s(I10
I18
tp18
I6
s(I0
I17
tp19
I27
s(I12
I17
tp20
I5
s(I0
I4
tp21
I7
s(I8
I15
tp22
I22
s(I4
I10
tp23
I5
s(I2
I6
tp24
I7
s(I9
I14
tp25
I7
s(I7
I10
tp26
I25
s(I5
I11
tp27
I5
s(I4
I5
tp28
I2
s(I10
I13
tp29
I15
s(I4
I16
tp30
I4
s(I9
I16
tp31
I12
s(I14
I15
tp32
I2
s(I2
I17
tp33
I3
s(I14
I16
tp34
I15
s(I17
I18
tp35
I2
s(I3
I12
tp36
I6
s(I1
I12
tp37
I18
s(I8
I12
tp38
I24
s(I4
I15
tp39
I11
s(I2
I11
tp40
I23
s(I5
I14
tp41
I6
s(I3
I18
tp42
I14
s(I10
I14
tp43
I24
s(I8
I18
tp44
I11
s(I6
I13
tp45
I0
s(I11
I15
tp46
I24
s(I7
I8
tp47
I2
s(I6
I16
tp48
I10
s(I11
I16
tp49
I20
s(I2
I18
tp50
I9
s(I0
I14
tp51
I8
s(I3
I11
tp52
I21
s(I1
I15
tp53
I8
s(I8
I9
tp54
I2
s(I4
I12
tp55
I12
s(I2
I12
tp56
I10
s(I3
I17
tp57
I8
s(I6
I14
tp58
I12
s(I7
I15
tp59
I21
s(I12
I13
tp60
I2
s(I1
I16
tp61
I3
s(I13
I16
tp62
I24
s(I1
I5
tp63
I7
s(I0
I11
tp64
I28
s(I3
I6
tp65
I25
s(I1
I10
tp66
I23
s(I6
I10
tp67
I24
s(I6
I11
tp68
I7
s(I5
I17
tp69
I4
s(I0
I18
tp70
I13
s(I7
I18
tp71
I28
s(I12
I18
tp72
I22
s(I0
I5
tp73
I5
s(I0
I8
tp74
I6
s(I4
I11
tp75
I22
s(I3
I5
tp76
I16
s(I2
I7
tp77
I20
s(I9
I13
tp78
I24
s(I5
I10
tp79
I7
s(I4
I6
tp80
I16
s(I15
I16
tp81
I1
s(I5
I7
tp82
I1
s(I4
I17
tp83
I19
s(I7
I17
tp84
I11
s(I0
I2
tp85
I16
s(I3
I15
tp86
I28
s(I1
I3
tp87
I15
s(I8
I13
tp88
I7
s(I4
I8
tp89
I24
s(I2
I8
tp90
I0
s(I5
I13
tp91
I12
s(I10
I15
tp92
I7
s(I11
I14
tp93
I15
s(I9
I18
tp94
I23
s(I7
I11
tp95
I17
s(I6
I17
tp96
I18
s(I16
I17
tp97
I2
s(I0
I15
tp98
I14
s(I3
I10
tp99
I22
s(I1
I14
tp100
I19
s(I8
I10
tp101
I16
s(I4
I13
tp102
I6
s(I2
I13
tp103
I18
s(I9
I11
tp104
I16
s(I3
I16
tp105
I19
s(I8
I16
tp106
I6
s(I6
I15
tp107
I6
s(I11
I13
tp108
I1
s(I7
I14
tp109
I22
s(I6
I18
tp110
I4
s(I12
I14
tp111
I16
s(I13
I15
tp112
I16
s(I1
I4
tp113
I24
s(I0
I12
tp114
I4
s(I3
I9
tp115
I5
s(I2
I3
tp116
I1
s(I1
I9
tp117
I6
s(I2
I14
tp118
I4
s(I6
I8
tp119
I1
s(I5
I16
tp120
I18
s(I10
I16
tp121
I0
s(I7
I13
tp122
I5
s(I1
I18
tp123
I27
s(I0
I6
tp124
I22
s(I13
I18
tp125
I5
s(I7
I9
tp126
I16
s(I1
I7
tp127
I0
s(I0
I9
tp128
I23
s(I3
I4
tp129
I2
s(I2
I4
tp130
I15
s(I9
I12
tp131
I15
s(I5
I9
tp132
I24
s(I4
I7
tp133
I15
s(I10
I11
tp134
I2
s(I5
I6
tp135
I2
s(I4
I18
tp136
I8
s(I0
I16
tp137
I9
s(I7
I16
tp138
I23
s(I12
I16
tp139
I7
s(I0
I3
tp140
I24
s(I3
I14
tp141
I11
s(I1
I2
tp142
I2
s(I8
I14
tp143
I5
s(I4
I9
tp144
I7
s(I2
I9
tp145
I12
s(I9
I15
tp146
I5
s(I5
I12
tp147
I0
s(I10
I12
tp148
I1
s(I9
I17
tp149
I6
s(I15
I18
tp150
I24
s(I0
I1
tp151
I2
s(I11
I18
tp152
I12
s(I16
I18
tp153
I16
s(I2
I16
tp154
I26
s(I3
I13
tp155
I23
s(I1
I13
tp156
I4
s(I8
I11
tp157
I25
s(I4
I14
tp158
I23
s(I2
I10
tp159
I6
s(I9
I10
tp160
I2
s(I5
I15
tp161
I23
s(I8
I17
tp162
I23
s(I6
I12
tp163
I20
s(I11
I12
tp164
I29
s(I15
I17
tp165
I15
s(I12
I15
tp166
I25
s(I11
I17
tp167
I0
s(I13
I14
tp168
I2
s(I0
I13
tp169
I19
s(I3
I8
tp170
I7
s(I1
I8
tp171
I12
s(I2
I15
tp172
I19
s.