(dp1
(I5
I31
tp2
I44
s(I20
I25
tp3
I39
s(I3
I35
tp4
I19
s(I6
I28
tp5
I56
s(I21
I28
tp6
I9
s(I4
I36
tp7
I47
s(I17
I20
tp8
I6
s(I7
I25
tp9
I38
s(I18
I19
tp10
I55
s(I23
I26
tp11
I6
s(I13
I32
tp12
I36
s(I14
I31
tp13
I61
s(I15
I30
tp14
I50
s(I11
I22
tp15
I2
s(I0
I17
tp16
I36
s(I12
I17
tp17
I39
s(I1
I28
tp18
I43
s(I13
I20
tp19
I21
s(I2
I27
tp20
I44
s(I15
I34
tp21
I14
s(I4
I5
tp22
I55
s(I5
I24
tp23
I36
s(I20
I32
tp24
I20
s(I6
I23
tp25
I61
s(I4
I35
tp26
I24
s(I28
I32
tp27
I41
s(I7
I22
tp28
I3
s(I5
I34
tp29
I45
s(I33
I34
tp30
I55
s(I10
I36
tp31
I13
s(I8
I12
tp32
I39
s(I18
I36
tp33
I12
s(I10
I14
tp34
I41
s(I8
I18
tp35
I2
s(I11
I15
tp36
I29
s(I9
I19
tp37
I54
s(I1
I21
tp38
I42
s(I2
I18
tp39
I38
s(I0
I14
tp40
I59
s(I3
I11
tp41
I2
s(I1
I15
tp42
I4
s(I4
I12
tp43
I51
s(I2
I12
tp44
I20
s(I0
I36
tp45
I58
s(I24
I33
tp46
I28
s(I3
I17
tp47
I4
s(I1
I33
tp48
I19
s(I6
I14
tp49
I51
s(I7
I15
tp50
I17
s(I20
I21
tp51
I55
s(I16
I29
tp52
I53
s(I6
I32
tp53
I44
s(I17
I24
tp54
I21
s(I18
I31
tp55
I53
s(I12
I30
tp56
I38
s(I8
I25
tp57
I61
s(I9
I20
tp58
I49
s(I24
I28
tp59
I39
s(I14
I19
tp60
I39
s(I10
I19
tp61
I51
s(I11
I26
tp62
I27
s(I26
I30
tp63
I39
s(I0
I5
tp64
I21
s(I23
I34
tp65
I53
s(I12
I29
tp66
I61
s(I27
I31
tp67
I39
s(I4
I11
tp68
I16
s(I2
I7
tp69
I21
s(I5
I10
tp70
I5
s(I3
I22
tp71
I10
s(I4
I17
tp72
I53
s(I19
I27
tp73
I16
s(I2
I33
tp74
I34
s(I26
I34
tp75
I2
s(I22
I36
tp76
I59
s(I5
I20
tp77
I50
s(I20
I28
tp78
I17
s(I23
I33
tp79
I20
s(I6
I27
tp80
I14
s(I30
I36
tp81
I16
s(I7
I34
tp82
I43
s(I31
I33
tp83
I29
s(I18
I22
tp84
I29
s(I31
I34
tp85
I39
s(I12
I32
tp86
I12
s(I9
I29
tp87
I12
s(I14
I26
tp88
I28
s(I10
I26
tp89
I50
s(I15
I19
tp90
I41
s(I11
I19
tp91
I16
s(I0
I28
tp92
I48
s(I12
I20
tp93
I16
s(I1
I25
tp94
I35
s(I13
I25
tp95
I28
s(I2
I30
tp96
I48
s(I3
I31
tp97
I48
s(I4
I24
tp98
I12
s(I19
I32
tp99
I53
s(I5
I29
tp100
I26
s(I20
I27
tp101
I21
s(I27
I32
tp102
I5
s(I6
I18
tp103
I20
s(I21
I26
tp104
I39
s(I9
I13
tp105
I41
s(I8
I33
tp106
I25
s(I7
I27
tp107
I12
s(I16
I33
tp108
I36
s(I14
I29
tp109
I3
s(I15
I24
tp110
I51
s(I0
I19
tp111
I14
s(I12
I19
tp112
I21
s(I1
I18
tp113
I36
s(I13
I18
tp114
I39
s(I2
I25
tp115
I26
s(I0
I9
tp116
I28
s(I23
I32
tp117
I54
s(I3
I4
tp118
I62
s(I4
I7
tp119
I6
s(I5
I6
tp120
I55
s(I20
I34
tp121
I4
s(I6
I21
tp122
I50
s(I21
I35
tp123
I4
s(I28
I34
tp124
I16
s(I7
I16
tp125
I8
s(I5
I32
tp126
I13
s(I29
I35
tp127
I16
s(I16
I24
tp128
I16
s(I10
I34
tp129
I35
s(I8
I14
tp130
I21
s(I9
I15
tp131
I5
s(I31
I32
tp132
I55
s(I10
I12
tp133
I40
s(I8
I20
tp134
I20
s(I9
I17
tp135
I16
s(I10
I22
tp136
I28
s(I32
I33
tp137
I62
s(I2
I16
tp138
I4
s(I3
I13
tp139
I20
s(I1
I13
tp140
I27
s(I4
I14
tp141
I49
s(I2
I10
tp142
I2
s(I24
I35
tp143
I53
s(I5
I15
tp144
I2
s(I3
I19
tp145
I38
s(I25
I34
tp146
I28
s(I6
I12
tp147
I21
s(I4
I20
tp148
I59
s(I19
I20
tp149
I55
s(I2
I36
tp150
I18
s(I7
I9
tp151
I62
s(I22
I35
tp152
I50
s(I20
I23
tp153
I62
s(I16
I31
tp154
I50
s(I30
I35
tp155
I21
s(I18
I34
tp156
I38
s(I17
I30
tp157
I53
s(I11
I32
tp158
I14
s(I18
I29
tp159
I28
s(I8
I27
tp160
I36
s(I9
I26
tp161
I59
s(I24
I30
tp162
I21
s(I14
I17
tp163
I62
s(I10
I17
tp164
I21
s(I25
I31
tp165
I21
s(I15
I20
tp166
I0
s(I11
I28
tp167
I61
s(I26
I28
tp168
I62
s(I0
I7
tp169
I51
s(I12
I31
tp170
I36
s(I1
I6
tp171
I21
s(I13
I30
tp172
I61
s(I2
I5
tp173
I39
s(I32
I35
tp174
I39
s(I5
I8
tp175
I6
s(I3
I24
tp176
I56
s(I6
I7
tp177
I55
s(I4
I19
tp178
I50
s(I19
I29
tp179
I2
s(I26
I32
tp180
I21
s(I5
I18
tp181
I53
s(I20
I30
tp182
I2
s(I16
I22
tp183
I5
s(I6
I25
tp184
I36
s(I21
I31
tp185
I2
s(I17
I23
tp186
I5
s(I7
I28
tp187
I30
s(I31
I35
tp188
I5
s(I35
I36
tp189
I55
s(I18
I20
tp190
I40
s(I23
I25
tp191
I40
s(I12
I34
tp192
I57
s(I13
I35
tp193
I57
s(I14
I24
tp194
I8
s(I10
I24
tp195
I53
s(I15
I29
tp196
I27
s(I11
I21
tp197
I54
s(I0
I30
tp198
I15
s(I12
I22
tp199
I8
s(I1
I31
tp200
I15
s(I13
I23
tp201
I8
s(I2
I28
tp202
I7
s(I14
I36
tp203
I57
s(I15
I33
tp204
I12
s(I4
I26
tp205
I42
s(I19
I34
tp206
I61
s(I5
I27
tp207
I42
s(I27
I34
tp208
I8
s(I6
I16
tp209
I2
s(I21
I24
tp210
I62
s(I4
I32
tp211
I33
s(I8
I35
tp212
I43
s(I7
I21
tp213
I27
s(I22
I23
tp214
I55
s(I9
I34
tp215
I44
s(I16
I35
tp216
I14
s(I8
I9
tp217
I32
s(I8
I10
tp218
I62
s(I15
I26
tp219
I49
s(I0
I21
tp220
I46
s(I12
I13
tp221
I55
s(I1
I16
tp222
I61
s(I13
I16
tp223
I62
s(I2
I23
tp224
I56
s(I0
I11
tp225
I53
s(I3
I6
tp226
I39
s(I1
I10
tp227
I28
s(I0
I33
tp228
I52
s(I16
I17
tp229
I55
s(I6
I11
tp230
I5
s(I21
I33
tp231
I31
s(I7
I18
tp232
I28
s(I29
I33
tp233
I5
s(I16
I26
tp234
I54
s(I10
I32
tp235
I42
s(I17
I27
tp236
I54
s(I18
I32
tp237
I27
s(I8
I22
tp238
I31
s(I9
I23
tp239
I53
s(I24
I25
tp240
I55
s(I22
I27
tp241
I0
s(I10
I20
tp242
I54
s(I11
I25
tp243
I53
s(I0
I2
tp244
I40
s(I3
I15
tp245
I31
s(I1
I3
tp246
I40
s(I4
I8
tp247
I41
s(I28
I29
tp248
I55
s(I2
I8
tp249
I16
s(I5
I13
tp250
I51
s(I3
I21
tp251
I12
s(I17
I32
tp252
I50
s(I25
I32
tp253
I16
s(I30
I31
tp254
I55
s(I4
I22
tp255
I38
s(I19
I22
tp256
I62
s(I2
I34
tp257
I19
s(I7
I11
tp258
I39
s(I22
I33
tp259
I53
s(I5
I23
tp260
I38
s(I23
I36
tp261
I50
s(I6
I36
tp262
I15
s(I30
I33
tp263
I39
s(I17
I28
tp264
I28
s(I7
I33
tp265
I7
s(I31
I36
tp266
I21
s(I11
I34
tp267
I26
s(I18
I27
tp268
I51
s(I8
I29
tp269
I30
s(I9
I24
tp270
I27
s(I14
I23
tp271
I17
s(I10
I31
tp272
I14
s(I25
I29
tp273
I39
s(I15
I22
tp274
I21
s(I11
I30
tp275
I36
s(I0
I25
tp276
I44
s(I12
I25
tp277
I20
s(I1
I4
tp278
I39
s(I13
I28
tp279
I3
s(I2
I3
tp280
I55
s(I14
I35
tp281
I56
s(I3
I26
tp282
I26
s(I4
I29
tp283
I35
s(I19
I31
tp284
I20
s(I5
I16
tp285
I28
s(I20
I24
tp286
I29
s(I3
I32
tp287
I45
s(I6
I31
tp288
I35
s(I21
I29
tp289
I17
s(I21
I22
tp290
I37
s(I7
I30
tp291
I57
s(I23
I27
tp292
I41
s(I13
I33
tp293
I30
s(I14
I30
tp294
I4
s(I15
I31
tp295
I59
s(I11
I23
tp296
I28
s(I0
I16
tp297
I38
s(I12
I16
tp298
I29
s(I1
I29
tp299
I48
s(I13
I21
tp300
I16
s(I2
I26
tp301
I35
s(I15
I35
tp302
I42
s(I19
I36
tp303
I36
s(I5
I25
tp304
I12
s(I27
I36
tp305
I28
s(I6
I22
tp306
I4
s(I4
I34
tp307
I15
s(I32
I34
tp308
I29
s(I5
I35
tp309
I15
s(I9
I32
tp310
I46
s(I33
I35
tp311
I40
s(I8
I11
tp312
I29
s(I9
I10
tp313
I55
s(I8
I17
tp314
I8
s(I11
I12
tp315
I55
s(I0
I23
tp316
I26
s(I12
I15
tp317
I62
s(I1
I22
tp318
I56
s(I13
I14
tp319
I55
s(I2
I21
tp320
I14
s(I0
I13
tp321
I50
s(I3
I8
tp322
I21
s(I1
I8
tp323
I51
s(I2
I15
tp324
I3
s(I0
I35
tp325
I11
s(I24
I32
tp326
I51
s(I1
I34
tp327
I52
s(I6
I9
tp328
I29
s(I7
I12
tp329
I5
s(I33
I36
tp330
I6
s(I16
I28
tp331
I20
s(I6
I35
tp332
I45
s(I34
I35
tp333
I55
s(I17
I25
tp334
I16
s(I18
I30
tp335
I20
s(I8
I24
tp336
I4
s(I9
I21
tp337
I60
s(I24
I27
tp338
I6
s(I14
I18
tp339
I29
s(I10
I18
tp340
I16
s(I25
I26
tp341
I55
s(I11
I27
tp342
I50
s(I0
I4
tp343
I5
s(I12
I28
tp344
I4
s(I27
I28
tp345
I32
s(I4
I10
tp346
I21
s(I28
I31
tp347
I6
s(I2
I6
tp348
I5
s(I5
I11
tp349
I21
s(I29
I30
tp350
I55
s(I3
I23
tp351
I30
s(I4
I16
tp352
I20
s(I19
I24
tp353
I39
s(I2
I32
tp354
I15
s(I5
I21
tp355
I59
s(I16
I19
tp356
I6
s(I6
I26
tp357
I12
s(I17
I18
tp358
I55
s(I7
I35
tp359
I48
s(I22
I25
tp360
I6
s(I11
I36
tp361
I44
s(I18
I25
tp362
I21
s(I23
I28
tp363
I5
s(I8
I31
tp364
I57
s(I9
I30
tp365
I14
s(I14
I21
tp366
I21
s(I10
I29
tp367
I36
s(I15
I16
tp368
I55
s(I11
I16
tp369
I39
s(I0
I27
tp370
I33
s(I12
I27
tp371
I27
s(I1
I26
tp372
I44
s(I13
I26
tp373
I20
s(I14
I33
tp374
I10
s(I3
I28
tp375
I25
s(I15
I36
tp376
I46
s(I4
I31
tp377
I13
s(I19
I33
tp378
I4
s(I5
I30
tp379
I35
s(I20
I26
tp380
I5
s(I3
I34
tp381
I34
s(I27
I33
tp382
I17
s(I6
I29
tp383
I57
s(I21
I27
tp384
I5
s(I8
I32
tp385
I26
s(I7
I24
tp386
I61
s(I16
I32
tp387
I59
s(I14
I28
tp388
I31
s(I15
I25
tp389
I54
s(I0
I18
tp390
I12
s(I12
I18
tp391
I5
s(I1
I19
tp392
I12
s(I13
I19
tp393
I5
s(I2
I24
tp394
I57
s(I0
I8
tp395
I54
s(I3
I5
tp396
I29
s(I4
I6
tp397
I40
s(I5
I7
tp398
I40
s(I20
I33
tp399
I3
s(I6
I20
tp400
I27
s(I21
I36
tp401
I61
s(I28
I33
tp402
I21
s(I18
I33
tp403
I61
s(I32
I36
tp404
I5
s(I5
I33
tp405
I48
s(I29
I36
tp406
I51
s(I8
I13
tp407
I5
s(I10
I15
tp408
I39
s(I8
I19
tp409
I28
s(I11
I14
tp410
I6
s(I9
I18
tp411
I51
s(I1
I20
tp412
I14
s(I2
I19
tp413
I36
s(I0
I15
tp414
I61
s(I23
I35
tp415
I27
s(I3
I10
tp416
I8
s(I1
I14
tp417
I50
s(I4
I13
tp418
I54
s(I2
I13
tp419
I53
s(I24
I34
tp420
I20
s(I3
I16
tp421
I3
s(I1
I32
tp422
I24
s(I25
I35
tp423
I20
s(I6
I15
tp424
I8
s(I19
I21
tp425
I40
s(I7
I14
tp426
I16
s(I22
I34
tp427
I27
s(I20
I22
tp428
I32
s(I16
I30
tp429
I27
s(I6
I33
tp430
I43
s(I30
I34
tp431
I5
s(I17
I31
tp432
I27
s(I7
I36
tp433
I45
s(I11
I33
tp434
I57
s(I18
I28
tp435
I2
s(I22
I28
tp436
I21
s(I8
I26
tp437
I38
s(I9
I27
tp438
I23
s(I24
I29
tp439
I5
s(I14
I16
tp440
I32
s(I10
I16
tp441
I5
s(I15
I21
tp442
I22
s(I11
I29
tp443
I38
s(I26
I31
tp444
I5
s(I0
I6
tp445
I16
s(I17
I36
tp446
I14
s(I27
I30
tp447
I29
s(I1
I7
tp448
I16
s(I13
I31
tp449
I38
s(I2
I4
tp450
I29
s(I5
I9
tp451
I39
s(I3
I25
tp452
I57
s(I25
I36
tp453
I53
s(I4
I18
tp454
I27
s(I19
I26
tp455
I21
s(I26
I35
tp456
I28
s(I5
I19
tp457
I27
s(I20
I29
tp458
I8
s(I16
I21
tp459
I0
s(I6
I24
tp460
I38
s(I18
I35
tp461
I36
s(I7
I29
tp462
I56
s(I22
I31
tp463
I54
s(I17
I21
tp464
I41
s(I18
I23
tp465
I39
s(I23
I30
tp466
I16
s(I12
I33
tp467
I56
s(I13
I36
tp468
I26
s(I9
I28
tp469
I36
s(I14
I27
tp470
I20
s(I10
I27
tp471
I59
s(I15
I18
tp472
I6
s(I11
I18
tp473
I21
s(I0
I29
tp474
I45
s(I12
I21
tp475
I51
s(I1
I24
tp476
I26
s(I13
I24
tp477
I2
s(I2
I31
tp478
I45
s(I7
I17
tp479
I2
s(I3
I30
tp480
I43
s(I4
I25
tp481
I14
s(I19
I35
tp482
I38
s(I5
I28
tp483
I57
s(I20
I36
tp484
I38
s(I3
I36
tp485
I52
s(I27
I35
tp486
I2
s(I6
I19
tp487
I53
s(I21
I25
tp488
I29
s(I28
I36
tp489
I54
s(I8
I34
tp490
I7
s(I7
I26
tp491
I36
s(I9
I35
tp492
I13
s(I16
I34
tp493
I12
s(I17
I35
tp494
I12
s(I22
I30
tp495
I51
s(I16
I20
tp496
I41
s(I15
I27
tp497
I60
s(I0
I20
tp498
I42
s(I1
I17
tp499
I38
s(I13
I17
tp500
I29
s(I2
I22
tp501
I30
s(I0
I10
tp502
I20
s(I3
I7
tp503
I5
s(I1
I11
tp504
I20
s(I23
I31
tp505
I51
s(I0
I32
tp506
I47
s(I20
I35
tp507
I61
s(I6
I10
tp508
I39
s(I21
I34
tp509
I3
s(I28
I35
tp510
I51
s(I7
I19
tp511
I20
s(I29
I34
tp512
I21
s(I2
I17
tp513
I61
s(I9
I36
tp514
I33
s(I16
I25
tp515
I51
s(I10
I35
tp516
I44
s(I34
I36
tp517
I40
s(I8
I15
tp518
I9
s(I9
I14
tp519
I0
s(I10
I13
tp520
I6
s(I8
I21
tp521
I53
s(I9
I16
tp522
I21
s(I14
I15
tp523
I37
s(I10
I23
tp524
I20
s(I17
I19
tp525
I40
s(I0
I1
tp526
I55
s(I3
I12
tp527
I28
s(I1
I12
tp528
I53
s(I4
I15
tp529
I28
s(I2
I11
tp530
I28
s(I7
I23
tp531
I4
s(I5
I14
tp532
I54
s(I3
I18
tp533
I61
s(I25
I33
tp534
I2
s(I6
I13
tp535
I16
s(I4
I21
tp536
I23
s(I19
I23
tp537
I29
s(I7
I8
tp538
I55
s(I22
I32
tp539
I49
s(I30
I32
tp540
I40
s(I17
I29
tp541
I20
s(I22
I26
tp542
I41
s(I11
I35
tp543
I35
s(I18
I26
tp544
I16
s(I12
I36
tp545
I35
s(I8
I28
tp546
I10
s(I24
I36
tp547
I27
s(I9
I25
tp548
I50
s(I24
I31
tp549
I16
s(I14
I22
tp550
I9
s(I10
I30
tp551
I12
s(I25
I30
tp552
I5
s(I15
I23
tp553
I16
s(I11
I31
tp554
I12
s(I26
I29
tp555
I29
s(I0
I24
tp556
I35
s(I12
I24
tp557
I28
s(I1
I5
tp558
I5
s(I13
I29
tp559
I4
s(I14
I34
tp560
I30
s(I3
I27
tp561
I35
s(I4
I28
tp562
I26
s(I19
I28
tp563
I8
s(I26
I33
tp564
I8
s(I5
I17
tp565
I20
s(I20
I31
tp566
I28
s(I3
I33
tp567
I1
s(I16
I23
tp568
I21
s(I6
I30
tp569
I26
s(I21
I30
tp570
I8
s(I17
I22
tp571
I39
s(I7
I31
tp572
I26
s(I22
I29
tp573
I16
s(I18
I21
tp574
I6
s(I23
I24
tp575
I55
s(I12
I35
tp576
I26
s(I13
I34
tp577
I56
s(I14
I25
tp578
I2
s(I10
I25
tp579
I27
s(I15
I28
tp580
I53
s(I11
I20
tp581
I51
s(I0
I31
tp582
I24
s(I12
I23
tp583
I2
s(I1
I30
tp584
I45
s(I13
I22
tp585
I17
s(I2
I29
tp586
I43
s(I15
I32
tp587
I23
s(I4
I27
tp588
I46
s(I5
I26
tp589
I14
s(I6
I17
tp590
I28
s(I4
I33
tp591
I45
s(I8
I36
tp592
I48
s(I7
I20
tp593
I53
s(I5
I36
tp594
I24
s(I9
I33
tp595
I35
s(I16
I36
tp596
I42
s(I17
I33
tp597
I38
s(I9
I11
tp598
I40
s(I8
I16
tp599
I17
s(I11
I13
tp600
I40
s(I0
I22
tp601
I57
s(I12
I14
tp602
I40
s(I1
I23
tp603
I57
s(I13
I15
tp604
I32
s(I2
I20
tp605
I12
s(I0
I12
tp606
I27
s(I3
I9
tp607
I17
s(I1
I9
tp608
I2
s(I2
I14
tp609
I27
s(I0
I34
tp610
I18
s(I17
I34
tp611
I36
s(I1
I35
tp612
I18
s(I6
I8
tp613
I40
s(I21
I32
tp614
I28
s(I7
I13
tp615
I21
s(I29
I32
tp616
I6
s(I16
I27
tp617
I49
s(I6
I34
tp618
I48
s(I10
I33
tp619
I26
s(I17
I26
tp620
I51
s(I9
I12
tp621
I6
s(I10
I11
tp622
I55
s(I8
I23
tp623
I3
s(I9
I22
tp624
I20
s(I24
I26
tp625
I40
s(I10
I21
tp626
I49
s(I25
I27
tp627
I40
s(I11
I24
tp628
I20
s(I0
I3
tp629
I6
s(I3
I14
tp630
I53
s(I27
I29
tp631
I62
s(I1
I2
tp632
I55
s(I4
I9
tp633
I5
s(I28
I30
tp634
I40
s(I2
I9
tp635
I8
s(I5
I12
tp636
I16
s(I29
I31
tp637
I40
s(I3
I20
tp638
I36
s(I1
I36
tp639
I11
s(I4
I23
tp640
I36
s(I19
I25
tp641
I5
s(I2
I35
tp642
I52
s(I26
I36
tp643
I20
s(I7
I10
tp644
I29
s(I5
I22
tp645
I61
s(I16
I18
tp646
I40
s(I21
I23
tp647
I32
s(I7
I32
tp648
I35
s(I22
I24
tp649
I40
s(I18
I24
tp650
I5
s(I23
I29
tp651
I21
s(I8
I30
tp652
I56
s(I9
I31
tp653
I42
s(I14
I20
tp654
I5
s(I10
I28
tp655
I38
s(I25
I28
tp656
I29
s(I15
I17
tp657
I40
s(I11
I17
tp658
I5
s(I26
I27
tp659
I55
s(I0
I26
tp660
I13
s(I12
I26
tp661
I53
s(I1
I27
tp662
I13
s(I13
I27
tp663
I53
s(I14
I32
tp664
I38
s(I3
I29
tp665
I7
s(I4
I30
tp666
I44
s(I19
I30
tp667
I28
s.